target datalayout = "e-m:e-p270:32:32-p271:32:32-p272:64:64-i64:64-i128:128-f80:128-n8:16:32:64-S128"
target triple = "x86_64-unknown-linux-gnu"

%"class.QuantLib::Date" = type { i64 }
%"struct.QuantLib::detail::long_date_holder" = type { %"class.QuantLib::Date" }

; Function Attrs: mustprogress nounwind uwtable
define linkonce_odr void @_ZN8QuantLib6detail16long_date_holderC2ERKNS_4DateE(ptr noundef nonnull align 8 dereferenceable(8) %this, ptr noundef nonnull align 8 dereferenceable(8) %d) unnamed_addr #4 comdat align 2 {
entry:
  %this.addr = alloca ptr, align 8
  %d.addr = alloca ptr, align 8
  store ptr %this, ptr %this.addr, align 8, !tbaa !3
  store ptr %d, ptr %d.addr, align 8, !tbaa !3
  %this1 = load ptr, ptr %this.addr, align 8
  %d2 = getelementptr inbounds nuw %"struct.QuantLib::detail::long_date_holder", ptr %this1, i32 0, i32 0
  %0 = load ptr, ptr %d.addr, align 8, !tbaa !3
  call void @llvm.memcpy.p0.p0.i64(ptr align 8 %d2, ptr align 8 %0, i64 8, i1 false), !tbaa.struct !32
  ret void
}

; Function Attrs: mustprogress uwtable
define i64 @_ZN8QuantLib2io9long_dateERKNS_4DateE(ptr noundef nonnull align 8 dereferenceable(8) %d) #5 {
entry:
  %retval = alloca %"struct.QuantLib::detail::long_date_holder", align 8
  %d.addr = alloca ptr, align 8
  store ptr %d, ptr %d.addr, align 8, !tbaa !3
  %0 = load ptr, ptr %d.addr, align 8, !tbaa !3
  call void @_ZN8QuantLib6detail16long_date_holderC2ERKNS_4DateE(ptr noundef nonnull align 8 dereferenceable(8) %retval, ptr noundef nonnull align 8 dereferenceable(8) %0)
  %coerce.dive = getelementptr inbounds nuw %"struct.QuantLib::detail::long_date_holder", ptr %retval, i32 0, i32 0
  %coerce.dive1 = getelementptr inbounds nuw %"class.QuantLib::Date", ptr %coerce.dive, i32 0, i32 0
  %1 = load i64, ptr %coerce.dive1, align 8
  ret i64 %1
}

; Function Attrs: mustprogress uwtable
define noundef nonnull align 8 dereferenceable(8) ptr @_ZN8QuantLiblsERSoRKNS_4DateE(ptr noundef nonnull align 8 dereferenceable(8) %out, ptr noundef nonnull align 8 dereferenceable(8) %d) #5 {
entry:
  %out.addr = alloca ptr, align 8
  %d.addr = alloca ptr, align 8
  %ref.tmp = alloca %"struct.QuantLib::detail::long_date_holder", align 8
  store ptr %out, ptr %out.addr, align 8, !tbaa !3
  store ptr %d, ptr %d.addr, align 8, !tbaa !3
  %0 = load ptr, ptr %out.addr, align 8, !tbaa !3
  call void @llvm.lifetime.start.p0(i64 8, ptr %ref.tmp) #3
  %1 = load ptr, ptr %d.addr, align 8, !tbaa !3
  %call = call i64 @_ZN8QuantLib2io9long_dateERKNS_4DateE(ptr noundef nonnull align 8 dereferenceable(8) %1)
  %coerce.dive = getelementptr inbounds nuw %"struct.QuantLib::detail::long_date_holder", ptr %ref.tmp, i32 0, i32 0
  %coerce.dive1 = getelementptr inbounds nuw %"class.QuantLib::Date", ptr %coerce.dive, i32 0, i32 0
  store i64 %call, ptr %coerce.dive1, align 8
  %call2 = call noundef nonnull align 8 dereferenceable(8) ptr @_ZN8QuantLib6detaillsERSoRKNS0_16long_date_holderE(ptr noundef nonnull align 8 dereferenceable(8) %0, ptr noundef nonnull align 8 dereferenceable(8) %ref.tmp)
  call void @llvm.lifetime.end.p0(i64 8, ptr %ref.tmp) #3
  ret ptr %call2
}