; Function Attrs: mustprogress uwtable
define noundef nonnull align 8 dereferenceable(8) ptr @_ZN8QuantLiblsERSoRKNS_4DateE(ptr noundef nonnull returned align 8 dereferenceable(8) %out, ptr nocapture noundef nonnull readonly align 8 dereferenceable(8) %d) local_unnamed_addr #4 {
entry:
  %ref.tmp = alloca %"struct.QuantLib::detail::long_date_holder", align 8
  call void @llvm.lifetime.start.p0(i64 8, ptr nonnull %ref.tmp) #29
  %0 = load i64, ptr %d, align 8, !tbaa !16
  store i64 %0, ptr %ref.tmp, align 8
  %call2 = call noundef nonnull align 8 dereferenceable(8) ptr @_ZN8QuantLib6detaillsERSoRKNS0_16long_date_holderE(ptr noundef nonnull align 8 dereferenceable(8) %out, ptr noundef nonnull align 8 dereferenceable(8) %ref.tmp)
  call void @llvm.lifetime.end.p0(i64 8, ptr nonnull %ref.tmp) #29
  ret ptr %out
}